(dp1
S'Cancer-Inside'
p2
I28
sS'Immaterial_anatomical_entity-Inside'
p3
I64
sS'Organ-Inside'
p4
I47
sS'Gene_or_gene_product-Last'
p5
I19
sS'Cancer-Last'
p6
I11
sS'DNA_domain_or_region-Inside'
p7
I44
sS'Cell-Unit'
p8
I12
sS'Organism_substance-Last'
p9
I56
sS'Simple_chemical-Inside'
p10
I21
sS'Developing_anatomical_structure-Unit'
p11
I54
sS'Multi-tissue_structure-Inside'
p12
I29
sS'Organism-Begin'
p13
I33
sS'DNA_domain_or_region-Last'
p14
I45
sS'Amino_acid-Last'
p15
I58
sS'Immaterial_anatomical_entity-Unit'
p16
I9
sS'Organism_substance-Inside'
p17
I60
sS'Cellular_component-Unit'
p18
I16
sS'Gene_or_gene_product-Inside'
p19
I18
sS'Protein_domain_or_region-Last'
p20
I63
sS'Tissue-Last'
p21
I14
sS'Organ-Begin'
p22
I30
sS'Multi-tissue_structure-Unit'
p23
I2
sS'NONE'
p24
I0
sS'Multi-tissue_structure-Last'
p25
I27
sS'Tissue-Begin'
p26
I13
sS'Protein_domain_or_region-Unit'
p27
I52
sS'Tissue-Unit'
p28
I3
sS'Cellular_component-Begin'
p29
I4
sS'Organism-Last'
p30
I35
sS'Simple_chemical-Unit'
p31
I15
sS'Cell-Inside'
p32
I7
sS'Gene_or_gene_product-Unit'
p33
I24
sS'Organism_substance-Unit'
p34
I25
sS'Amino_acid-Unit'
p35
I50
sS'Immaterial_anatomical_entity-Last'
p36
I49
sS'Cancer-Unit'
p37
I23
sS'Tissue-Inside'
p38
I59
sS'Pathological_formation-Last'
p39
I42
sS'Cell-Last'
p40
I8
sS'Organ-Unit'
p41
I32
sS'Pathological_formation-Inside'
p42
I51
sS'Organism-Unit'
p43
I1
sS'Pathological_formation-Unit'
p44
I40
sS'Developing_anatomical_structure-Begin'
p45
I37
sS'OTHER'
p46
I65
sS'Cellular_component-Last'
p47
I5
sS'DNA_domain_or_region-Unit'
p48
I39
sS'Cell-Begin'
p49
I6
sS'Protein_domain_or_region-Begin'
p50
I61
sS'Gene_or_gene_product-Begin'
p51
I17
sS'Organism_substance-Begin'
p52
I55
sS'Cellular_component-Inside'
p53
I53
sS'Simple_chemical-Last'
p54
I22
sS'Cancer-Begin'
p55
I10
sS'DNA_domain_or_region-Begin'
p56
I43
sS'Anatomical_system-Unit'
p57
I46
sS'Pathological_formation-Begin'
p58
I41
sS'Amino_acid-Begin'
p59
I57
sS'Organ-Last'
p60
I31
sS'Simple_chemical-Begin'
p61
I20
sS'Protein_domain_or_region-Inside'
p62
I62
sS'Organism-Inside'
p63
I34
sS'Immaterial_anatomical_entity-Begin'
p64
I48
sS'Developing_anatomical_structure-Last'
p65
I38
sS'Organism_subdivision-Unit'
p66
I36
sS'Multi-tissue_structure-Begin'
p67
I26
s.