(dp1
S'Cancer-Inside'
p2
I11
sS'Immaterial_anatomical_entity-Inside'
p3
I70
sS'Organ-Inside'
p4
I69
sS'Gene_or_gene_product-Last'
p5
I3
sS'Cancer-Last'
p6
I6
sS'DNA_domain_or_region-Inside'
p7
I67
sS'Cell-Unit'
p8
I24
sS'Organism_substance-Last'
p9
I17
sS'Organ-Unit'
p10
I23
sS'Developing_anatomical_structure-Unit'
p11
I19
sS'Multi-tissue_structure-Inside'
p12
I47
sS'Organism-Begin'
p13
I25
sS'Protein_domain_or_region-Inside'
p14
I63
sS'Amino_acid-Last'
p15
I42
sS'Immaterial_anatomical_entity-Unit'
p16
I33
sS'Simple_chemical-Inside'
p17
I36
sS'Organism_substance-Inside'
p18
I58
sS'Cellular_component-Unit'
p19
I32
sS'Gene_or_gene_product-Inside'
p20
I2
sS'Organism_subdivision-Last'
p21
I60
sS'Tissue-Last'
p22
I14
sS'Organ-Begin'
p23
I50
sS'Multi-tissue_structure-Unit'
p24
I4
sS'NONE'
p25
I0
sS'Multi-tissue_structure-Last'
p26
I8
sS'Tissue-Begin'
p27
I12
sS'Protein_domain_or_region-Unit'
p28
I65
sS'Amino_acid-Inside'
p29
I41
sS'Cell-Begin'
p30
I28
sS'Tissue-Unit'
p31
I18
sS'Cell-Inside'
p32
I30
sS'Protein_domain_or_region-Last'
p33
I64
sS'Simple_chemical-Unit'
p34
I31
sS'Cellular_component-Begin'
p35
I20
sS'Gene_or_gene_product-Unit'
p36
I15
sS'Organism_substance-Unit'
p37
I45
sS'Anatomical_system-Last'
p38
I54
sS'Immaterial_anatomical_entity-Last'
p39
I49
sS'Cancer-Unit'
p40
I9
sS'Tissue-Inside'
p41
I13
sS'Anatomical_system-Begin'
p42
I52
sS'Pathological_formation-Last'
p43
I39
sS'Cell-Last'
p44
I29
sS'Organism-Last'
p45
I27
sS'DNA_domain_or_region-Last'
p46
I68
sS'Pathological_formation-Inside'
p47
I61
sS'Organism_subdivision-Begin'
p48
I59
sS'Organism-Unit'
p49
I10
sS'Pathological_formation-Unit'
p50
I43
sS'Developing_anatomical_structure-Begin'
p51
I55
sS'OTHER'
p52
I71
sS'Cellular_component-Last'
p53
I22
sS'DNA_domain_or_region-Unit'
p54
I44
sS'Cellular_component-Inside'
p55
I21
sS'Protein_domain_or_region-Begin'
p56
I62
sS'Gene_or_gene_product-Begin'
p57
I1
sS'Organism_substance-Begin'
p58
I16
sS'Amino_acid-Unit'
p59
I57
sS'Simple_chemical-Last'
p60
I37
sS'Cancer-Begin'
p61
I5
sS'DNA_domain_or_region-Begin'
p62
I66
sS'Anatomical_system-Unit'
p63
I34
sS'Pathological_formation-Begin'
p64
I38
sS'Amino_acid-Begin'
p65
I40
sS'Organ-Last'
p66
I51
sS'Simple_chemical-Begin'
p67
I35
sS'Anatomical_system-Inside'
p68
I53
sS'Organism-Inside'
p69
I26
sS'Immaterial_anatomical_entity-Begin'
p70
I48
sS'Developing_anatomical_structure-Last'
p71
I56
sS'Organism_subdivision-Unit'
p72
I46
sS'Multi-tissue_structure-Begin'
p73
I7
s.