(dp1
S'Glycolysis-Last'
p2
I64
sS'Translation-Last'
p3
I82
sS'Catabolism-Begin'
p4
I67
sS'Metabolism-Begin'
p5
I115
sS'Glycolysis-Inside'
p6
I66
sS'Death-Last'
p7
I70
sS'Regulation-Inside'
p8
I28
sS'Ubiquitination-Unit'
p9
I104
sS'Growth-Unit'
p10
I40
sS'Binding-Inside'
p11
I80
sS'Metastasis-Begin'
p12
I91
sS'Cell_death-Begin'
p13
I60
sS'Metastasis-Last'
p14
I92
sS'Gene_expression-Inside'
p15
I73
sS'Regulation-Last'
p16
I29
sS'Infection-Unit'
p17
I14
sS'Gene_expression-Last'
p18
I6
sS'Death-Unit'
p19
I7
sS'Dephosphorylation-Begin'
p20
I106
sS'Remodeling-Begin'
p21
I100
sS'DNA_demethylation-Unit'
p22
I87
sS'Planned_process-Inside'
p23
I55
sS'Pathway-Inside'
p24
I54
sS'Binding-Begin'
p25
I79
sS'Cell_death-Last'
p26
I61
sS'Death-Begin'
p27
I69
sS'Positive_regulation-Inside'
p28
I41
sS'Breakdown-Unit'
p29
I36
sS'Acetylation-Unit'
p30
I77
sS'Carcinogenesis-Last'
p31
I9
sS'Development-Unit'
p32
I11
sS'Negative_regulation-Inside'
p33
I43
sS'Cell_proliferation-Unit'
p34
I26
sS'NONE'
p35
I0
sS'Cell_proliferation-Begin'
p36
I98
sS'Growth-Begin'
p37
I71
sS'Gene_expression-Begin'
p38
I5
sS'Synthesis-Unit'
p39
I59
sS'Catabolism-Last'
p40
I68
sS'Binding-Last'
p41
I81
sS'Localization-Begin'
p42
I47
sS'Protein_processing-Begin'
p43
I112
sS'Dephosphorylation-Inside'
p44
I107
sS'Planned_process-Begin'
p45
I30
sS'Dephosphorylation-Last'
p46
I108
sS'Glycolysis-Begin'
p47
I63
sS'Carcinogenesis-Begin'
p48
I8
sS'Catabolism-Unit'
p49
I57
sS'Mutation-Unit'
p50
I39
sS'Cell_transformation-Begin'
p51
I12
sS'Cell_differentiation-Unit'
p52
I56
sS'Development-Inside'
p53
I109
sS'Pathway-Last'
p54
I50
sS'Positive_regulation-Begin'
p55
I23
sS'Transcription-Inside'
p56
I90
sS'Regulation-Begin'
p57
I27
sS'Carcinogenesis-Unit'
p58
I35
sS'Transcription-Last'
p59
I85
sS'Growth-Last'
p60
I72
sS'Cell_death-Unit'
p61
I51
sS'Planned_process-Last'
p62
I31
sS'Pathway-Unit'
p63
I37
sS'Glycosylation-Last'
p64
I34
sS'Cell_transformation-Unit'
p65
I22
sS'Localization-Unit'
p66
I1
sS'Phosphorylation-Begin'
p67
I74
sS'Development-Begin'
p68
I93
sS'Positive_regulation-Unit'
p69
I10
sS'Glycolysis-Unit'
p70
I58
sS'Remodeling-Last'
p71
I101
sS'Metabolism-Last'
p72
I116
sS'Mutation-Last'
p73
I16
sS'Amino_acid_catabolism-Unit'
p74
I95
sS'Mutation-Begin'
p75
I15
sS'Glycosylation-Begin'
p76
I32
sS'Metastasis-Unit'
p77
I2
sS'Protein_processing-Inside'
p78
I113
sS'Blood_vessel_development-Last'
p79
I111
sS'Cell_transformation-Inside'
p80
I105
sS'Development-Last'
p81
I94
sS'Negative_regulation-Last'
p82
I44
sS'Phosphorylation-Unit'
p83
I38
sS'Mutation-Inside'
p84
I53
sS'Breakdown-Begin'
p85
I102
sS'Localization-Inside'
p86
I83
sS'Pathway-Begin'
p87
I49
sS'Cell_transformation-Last'
p88
I13
sS'Cell_proliferation-Last'
p89
I99
sS'Protein_processing-Last'
p90
I114
sS'Breakdown-Last'
p91
I103
sS'Metabolism-Unit'
p92
I65
sS'Planned_process-Unit'
p93
I4
sS'Glycosylation-Inside'
p94
I33
sS'DNA_methylation-Unit'
p95
I78
sS'Carcinogenesis-Inside'
p96
I62
sS'Translation-Unit'
p97
I96
sS'Negative_regulation-Unit'
p98
I17
sS'Remodeling-Unit'
p99
I25
sS'Cell_division-Unit'
p100
I88
sS'Phosphorylation-Last'
p101
I76
sS'Blood_vessel_development-Begin'
p102
I110
sS'Transcription-Begin'
p103
I84
sS'Regulation-Unit'
p104
I19
sS'Transcription-Unit'
p105
I46
sS'Binding-Unit'
p106
I18
sS'Translation-Begin'
p107
I45
sS'Positive_regulation-Last'
p108
I24
sS'Protein_processing-Unit'
p109
I20
sS'Phosphorylation-Inside'
p110
I75
sS'Reproduction-Unit'
p111
I89
sS'OTHER'
p112
I117
sS'Gene_expression-Unit'
p113
I3
sS'Dephosphorylation-Unit'
p114
I52
sS'Blood_vessel_development-Unit'
p115
I21
sS'Localization-Last'
p116
I48
sS'Cell_death-Inside'
p117
I86
sS'Negative_regulation-Begin'
p118
I42
sS'Dissociation-Unit'
p119
I97
s.