(dp1
S'Glycolysis-Last'
p2
I64
sS'Translation-Last'
p3
I77
sS'Catabolism-Begin'
p4
I66
sS'Metabolism-Begin'
p5
I111
sS'Death-Last'
p6
I96
sS'Regulation-Inside'
p7
I28
sS'Ubiquitination-Unit'
p8
I101
sS'Growth-Unit'
p9
I40
sS'Binding-Inside'
p10
I75
sS'Metastasis-Begin'
p11
I86
sS'Cell_death-Begin'
p12
I61
sS'Metastasis-Last'
p13
I87
sS'Gene_expression-Inside'
p14
I68
sS'Regulation-Last'
p15
I29
sS'Infection-Unit'
p16
I14
sS'Gene_expression-Last'
p17
I6
sS'Death-Unit'
p18
I7
sS'Dephosphorylation-Begin'
p19
I102
sS'Remodeling-Begin'
p20
I97
sS'DNA_demethylation-Unit'
p21
I81
sS'Planned_process-Inside'
p22
I54
sS'Pathway-Inside'
p23
I53
sS'Binding-Begin'
p24
I74
sS'Cell_death-Last'
p25
I62
sS'Death-Begin'
p26
I95
sS'Positive_regulation-Inside'
p27
I41
sS'Breakdown-Unit'
p28
I36
sS'Acetylation-Unit'
p29
I72
sS'Carcinogenesis-Last'
p30
I9
sS'Development-Unit'
p31
I11
sS'Negative_regulation-Inside'
p32
I43
sS'Cell_proliferation-Unit'
p33
I26
sS'NONE'
p34
I0
sS'Cell_proliferation-Begin'
p35
I93
sS'Growth-Begin'
p36
I113
sS'Gene_expression-Begin'
p37
I5
sS'Synthesis-Unit'
p38
I58
sS'Catabolism-Last'
p39
I67
sS'Binding-Last'
p40
I76
sS'Localization-Begin'
p41
I47
sS'Protein_processing-Begin'
p42
I108
sS'Dephosphorylation-Inside'
p43
I103
sS'Planned_process-Begin'
p44
I30
sS'Dephosphorylation-Last'
p45
I104
sS'Glycolysis-Begin'
p46
I63
sS'Carcinogenesis-Begin'
p47
I8
sS'Catabolism-Unit'
p48
I56
sS'Mutation-Unit'
p49
I39
sS'Cell_transformation-Begin'
p50
I12
sS'Cell_differentiation-Unit'
p51
I55
sS'Development-Inside'
p52
I105
sS'Pathway-Last'
p53
I50
sS'Positive_regulation-Begin'
p54
I23
sS'Transcription-Inside'
p55
I85
sS'Regulation-Begin'
p56
I27
sS'Carcinogenesis-Unit'
p57
I35
sS'Transcription-Last'
p58
I80
sS'Growth-Last'
p59
I114
sS'Cell_death-Unit'
p60
I51
sS'Planned_process-Last'
p61
I31
sS'Pathway-Unit'
p62
I37
sS'Glycosylation-Last'
p63
I34
sS'Cell_transformation-Unit'
p64
I22
sS'Localization-Unit'
p65
I1
sS'Phosphorylation-Begin'
p66
I69
sS'Development-Begin'
p67
I88
sS'Positive_regulation-Unit'
p68
I10
sS'Glycolysis-Unit'
p69
I57
sS'Remodeling-Last'
p70
I98
sS'Metabolism-Last'
p71
I112
sS'Mutation-Last'
p72
I16
sS'Amino_acid_catabolism-Unit'
p73
I90
sS'Mutation-Begin'
p74
I15
sS'Glycosylation-Begin'
p75
I32
sS'Metastasis-Unit'
p76
I2
sS'Protein_processing-Inside'
p77
I109
sS'Blood_vessel_development-Last'
p78
I107
sS'Development-Last'
p79
I89
sS'Negative_regulation-Last'
p80
I44
sS'Phosphorylation-Unit'
p81
I38
sS'Mutation-Inside'
p82
I59
sS'Breakdown-Begin'
p83
I99
sS'Localization-Inside'
p84
I78
sS'Pathway-Begin'
p85
I49
sS'Cell_transformation-Last'
p86
I13
sS'Cell_proliferation-Last'
p87
I94
sS'Protein_processing-Last'
p88
I110
sS'Breakdown-Last'
p89
I100
sS'Metabolism-Unit'
p90
I65
sS'Planned_process-Unit'
p91
I4
sS'Glycosylation-Inside'
p92
I33
sS'DNA_methylation-Unit'
p93
I73
sS'Carcinogenesis-Inside'
p94
I60
sS'Translation-Unit'
p95
I91
sS'Negative_regulation-Unit'
p96
I17
sS'Remodeling-Unit'
p97
I25
sS'Cell_division-Unit'
p98
I82
sS'Phosphorylation-Last'
p99
I71
sS'Blood_vessel_development-Begin'
p100
I106
sS'Transcription-Begin'
p101
I79
sS'Regulation-Unit'
p102
I19
sS'Transcription-Unit'
p103
I46
sS'Binding-Unit'
p104
I18
sS'Translation-Begin'
p105
I45
sS'Positive_regulation-Last'
p106
I24
sS'Protein_processing-Unit'
p107
I20
sS'Phosphorylation-Inside'
p108
I70
sS'Reproduction-Unit'
p109
I83
sS'OTHER'
p110
I115
sS'Gene_expression-Unit'
p111
I3
sS'Dephosphorylation-Unit'
p112
I52
sS'Blood_vessel_development-Unit'
p113
I21
sS'Localization-Last'
p114
I48
sS'Cell_death-Inside'
p115
I84
sS'Negative_regulation-Begin'
p116
I42
sS'Dissociation-Unit'
p117
I92
s.