(dp1
S'NONE'
p2
I0
sS'Participant'
p3
I4
sS'FromLoc'
p4
I3
sS'Theme2'
p5
I8
sS'Instrument2'
p6
I11
sS'Site'
p7
I10
sS'Instrument'
p8
I5
sS'Theme'
p9
I1
sS'Participant2'
p10
I9
sS'ToLoc'
p11
I7
sS'AtLoc'
p12
I6
sS'Cause'
p13
I2
s.