(dp1
S'NONE'
p2
I2
sS'Participant'
p3
I6
sS'FromLoc'
p4
I4
sS'Instrument'
p5
I9
sS'Instrument2'
p6
I8
sS'Site'
p7
I10
sS'Theme2'
p8
I7
sS'Theme'
p9
I1
sS'Participant2'
p10
I11
sS'ToLoc'
p11
I3
sS'AtLoc'
p12
I0
sS'Cause'
p13
I5
sS'Cause2'
p14
I12
s.